target datalayout = "e-m:e-p270:32:32-p271:32:32-p272:64:64-i64:64-i128:128-f80:128-n8:16:32:64-S128"
target triple = "x86_64-pc-linux-gnu"

%"class.vcg::Point3" = type { [3 x float] }
%"class.vcg::TrackMode" = type { ptr }
%"class.std::vector" = type { %"struct.std::_Vector_base" }
%"struct.std::_Vector_base" = type { %"struct.std::_Vector_base<vcg::Point3<float>, std::allocator<vcg::Point3<float>>>::_Vector_impl" }
%"struct.std::_Vector_base<vcg::Point3<float>, std::allocator<vcg::Point3<float>>>::_Vector_impl" = type { %"struct.std::_Vector_base<vcg::Point3<float>, std::allocator<vcg::Point3<float>>>::_Vector_impl_data" }
%"struct.std::_Vector_base<vcg::Point3<float>, std::allocator<vcg::Point3<float>>>::_Vector_impl_data" = type { ptr, ptr, ptr }
%"class.vcg::Plane3" = type { float, %"class.vcg::Point3" }
%"class.vcg::AreaMode" = type { %"class.vcg::TrackMode", %"class.std::vector", i8, i32, i32, float, %"class.vcg::Point3", %"class.vcg::Point3", %"class.vcg::Point3", %"class.vcg::Point3", %"class.vcg::Plane3", %"class.vcg::Point3", %"class.std::vector", i8, %"class.vcg::Point3", %"class.vcg::Point3", %"class.vcg::Point3", %"class.vcg::Point3", i64 }

; Function Attrs: mustprogress uwtable
define void @_ZN3vcg8AreaMode4DrawEPNS_9TrackballE(ptr noundef nonnull align 8 dereferenceable(216) %0, ptr noundef %1) unnamed_addr #2 align 2 {
  %3 = alloca ptr, align 8
  %4 = alloca ptr, align 8
  %5 = alloca %"class.vcg::Point3", align 4
  %6 = alloca %"class.vcg::Point3", align 4
  %7 = alloca %"class.vcg::Plane3", align 4
  %8 = alloca %"class.vcg::Point3", align 4
  %9 = alloca { <2 x float>, float }, align 4
  %10 = alloca { <2 x float>, float }, align 4
  %11 = alloca { <2 x float>, float }, align 4
  store ptr %0, ptr %3, align 8
  store ptr %1, ptr %4, align 8
  %12 = load ptr, ptr %3, align 8
  %13 = load ptr, ptr %4, align 8
  call void @_ZN3vcg10trackutils14DrawSphereIconEPNS_9TrackballEbb(ptr noundef %13, i1 noundef zeroext true, i1 noundef zeroext false)
  %14 = load ptr, ptr %4, align 8
  %15 = getelementptr inbounds %"class.vcg::AreaMode", ptr %12, i32 0, i32 1
  %16 = getelementptr inbounds %"class.vcg::AreaMode", ptr %12, i32 0, i32 6
  call void @llvm.memcpy.p0.p0.i64(ptr align 4 %5, ptr align 8 %16, i64 12, i1 false)
  %17 = getelementptr inbounds %"class.vcg::AreaMode", ptr %12, i32 0, i32 8
  call void @llvm.memcpy.p0.p0.i64(ptr align 4 %6, ptr align 8 %17, i64 12, i1 false)
  %18 = getelementptr inbounds %"class.vcg::AreaMode", ptr %12, i32 0, i32 10
  call void @llvm.memcpy.p0.p0.i64(ptr align 4 %7, ptr align 8 %18, i64 16, i1 false)
  %19 = getelementptr inbounds %"class.vcg::AreaMode", ptr %12, i32 0, i32 12
  %20 = getelementptr inbounds %"class.vcg::AreaMode", ptr %12, i32 0, i32 11
  call void @llvm.memcpy.p0.p0.i64(ptr align 4 %8, ptr align 8 %20, i64 12, i1 false)
  call void @llvm.memcpy.p0.p0.i64(ptr align 4 %9, ptr align 4 %5, i64 12, i1 false)
  %21 = getelementptr inbounds { <2 x float>, float }, ptr %9, i32 0, i32 0
  %22 = load <2 x float>, ptr %21, align 4
  %23 = getelementptr inbounds { <2 x float>, float }, ptr %9, i32 0, i32 1
  %24 = load float, ptr %23, align 4
  call void @llvm.memcpy.p0.p0.i64(ptr align 4 %10, ptr align 4 %6, i64 12, i1 false)
  %25 = getelementptr inbounds { <2 x float>, float }, ptr %10, i32 0, i32 0
  %26 = load <2 x float>, ptr %25, align 4
  %27 = getelementptr inbounds { <2 x float>, float }, ptr %10, i32 0, i32 1
  %28 = load float, ptr %27, align 4
  %29 = getelementptr inbounds { <2 x float>, <2 x float> }, ptr %7, i32 0, i32 0
  %30 = load <2 x float>, ptr %29, align 4
  %31 = getelementptr inbounds { <2 x float>, <2 x float> }, ptr %7, i32 0, i32 1
  %32 = load <2 x float>, ptr %31, align 4
  call void @llvm.memcpy.p0.p0.i64(ptr align 4 %11, ptr align 4 %8, i64 12, i1 false)
  %33 = getelementptr inbounds { <2 x float>, float }, ptr %11, i32 0, i32 0
  %34 = load <2 x float>, ptr %33, align 4
  %35 = getelementptr inbounds { <2 x float>, float }, ptr %11, i32 0, i32 1
  %36 = load float, ptr %35, align 4
  call void @_ZN3vcg10trackutils16DrawUglyAreaModeEPNS_9TrackballERKSt6vectorINS_6Point3IfEESaIS5_EES5_S5_NS_6Plane3IfLb1EEES9_S5_(ptr noundef %14, ptr noundef nonnull align 8 dereferenceable(24) %15, <2 x float> %22, float %24, <2 x float> %26, float %28, <2 x float> %30, <2 x float> %32, ptr noundef nonnull align 8 dereferenceable(24) %19, <2 x float> %34, float %36)
  ret void
}