; Function Attrs: mustprogress uwtable
define void @_ZN3vcg8AreaMode4DrawEPNS_9TrackballE(ptr nocapture noundef nonnull readonly align 8 dereferenceable(216) %0, ptr noundef %1) unnamed_addr #3 align 2 {
  tail call void @_ZN3vcg10trackutils14DrawSphereIconEPNS_9TrackballEbb(ptr noundef %1, i1 noundef zeroext true, i1 noundef zeroext false)
  %3 = getelementptr inbounds i8, ptr %0, i64 8
  %4 = getelementptr inbounds i8, ptr %0, i64 48
  %.sroa.011.0.copyload = load <2 x float>, ptr %4, align 8
  %.sroa.212.0..sroa_idx = getelementptr inbounds i8, ptr %0, i64 56
  %.sroa.212.0.copyload = load float, ptr %.sroa.212.0..sroa_idx, align 8
  %5 = getelementptr inbounds i8, ptr %0, i64 72
  %.sroa.09.0.copyload = load <2 x float>, ptr %5, align 8
  %.sroa.210.0..sroa_idx = getelementptr inbounds i8, ptr %0, i64 80
  %.sroa.210.0.copyload = load float, ptr %.sroa.210.0..sroa_idx, align 8
  %6 = getelementptr inbounds i8, ptr %0, i64 96
  %.sroa.07.0.copyload = load <2 x float>, ptr %6, align 8
  %.sroa.28.0..sroa_idx = getelementptr inbounds i8, ptr %0, i64 104
  %.sroa.28.0.copyload = load <2 x float>, ptr %.sroa.28.0..sroa_idx, align 8
  %7 = getelementptr inbounds i8, ptr %0, i64 128
  %8 = getelementptr inbounds i8, ptr %0, i64 112
  %.sroa.05.0.copyload = load <2 x float>, ptr %8, align 8
  %.sroa.26.0..sroa_idx = getelementptr inbounds i8, ptr %0, i64 120
  %.sroa.26.0.copyload = load float, ptr %.sroa.26.0..sroa_idx, align 8
  tail call void @_ZN3vcg10trackutils16DrawUglyAreaModeEPNS_9TrackballERKSt6vectorINS_6Point3IfEESaIS5_EES5_S5_NS_6Plane3IfLb1EEES9_S5_(ptr noundef %1, ptr noundef nonnull align 8 dereferenceable(24) %3, <2 x float> %.sroa.011.0.copyload, float %.sroa.212.0.copyload, <2 x float> %.sroa.09.0.copyload, float %.sroa.210.0.copyload, <2 x float> %.sroa.07.0.copyload, <2 x float> %.sroa.28.0.copyload, ptr noundef nonnull align 8 dereferenceable(24) %7, <2 x float> %.sroa.05.0.copyload, float %.sroa.26.0.copyload)
  ret void
}